target datalayout = "e-m:e-p270:32:32-p271:32:32-p272:64:64-i64:64-i128:128-f80:128-n8:16:32:64-S128"
target triple = "x86_64-pc-linux-gnu"

@.str.75 = private unnamed_addr constant [1 x i8] zeroinitializer, align 1
@git_gettext_enabled = external global i32, align 4
@.str.209 = private unnamed_addr constant [22 x i8] c"git-maintenance@%s.%s\00", align 1
@.str.215 = private unnamed_addr constant [13 x i8] c"systemd/user\00", align 1
@.str.219 = private unnamed_addr constant [6 x i8] c"timer\00", align 1
@.str.228 = private unnamed_addr constant [22 x i8] c"failed to delete '%s'\00", align 1

; Function Attrs: inlinehint nounwind uwtable
define internal ptr @_(ptr noundef %0) #6 {
  %2 = alloca ptr, align 8
  %3 = alloca ptr, align 8
  store ptr %0, ptr %3, align 8, !tbaa !11
  %4 = load ptr, ptr %3, align 8, !tbaa !11
  %5 = load i8, ptr %4, align 1, !tbaa !93
  %6 = icmp ne i8 %5, 0
  br i1 %6, label %8, label %7

7:                                                ; preds = %1
  store ptr @.str.75, ptr %2, align 8
  br label %16

8:                                                ; preds = %1
  %9 = load i32, ptr @git_gettext_enabled, align 4, !tbaa !4
  %10 = icmp ne i32 %9, 0
  br i1 %10, label %13, label %11

11:                                               ; preds = %8
  %12 = load ptr, ptr %3, align 8, !tbaa !11
  store ptr %12, ptr %2, align 8
  br label %16

13:                                               ; preds = %8
  %14 = load ptr, ptr %3, align 8, !tbaa !11
  %15 = call ptr @dcgettext(ptr noundef null, ptr noundef %14, i32 noundef 5) #11
  store ptr %15, ptr %2, align 8
  br label %16

16:                                               ; preds = %13, %11, %7
  %17 = load ptr, ptr %2, align 8
  ret ptr %17
}

; Function Attrs: inlinehint nounwind uwtable
define internal i32 @is_missing_file_error(i32 noundef %0) #6 {
  %2 = alloca i32, align 4
  store i32 %0, ptr %2, align 4, !tbaa !4
  %3 = load i32, ptr %2, align 4, !tbaa !4
  %4 = icmp eq i32 %3, 2
  br i1 %4, label %8, label %5

5:                                                ; preds = %1
  %6 = load i32, ptr %2, align 4, !tbaa !4
  %7 = icmp eq i32 %6, 20
  br label %8

8:                                                ; preds = %5, %1
  %9 = phi i1 [ true, %1 ], [ %7, %5 ]
  %10 = zext i1 %9 to i32
  ret i32 %10
}

; Function Attrs: nounwind uwtable
define internal ptr @xdg_config_home_systemd(ptr noundef %0) #0 {
  %2 = alloca ptr, align 8
  store ptr %0, ptr %2, align 8, !tbaa !11
  %3 = load ptr, ptr %2, align 8, !tbaa !11
  %4 = call ptr @xdg_config_home_for(ptr noundef @.str.215, ptr noundef %3)
  ret ptr %4
}

; Function Attrs: nounwind uwtable
define internal void @systemd_timer_delete_stale_timer_templates() #0 {
  %1 = alloca ptr, align 8
  %2 = alloca ptr, align 8
  call void @llvm.lifetime.start.p0(i64 8, ptr %1) #11
  %3 = call ptr (ptr, ...) @xstrfmt(ptr noundef @.str.209, ptr noundef @.str.75, ptr noundef @.str.219)
  store ptr %3, ptr %1, align 8, !tbaa !11
  call void @llvm.lifetime.start.p0(i64 8, ptr %2) #11
  %4 = load ptr, ptr %1, align 8, !tbaa !11
  %5 = call ptr @xdg_config_home_systemd(ptr noundef %4)
  store ptr %5, ptr %2, align 8, !tbaa !11
  %6 = load ptr, ptr %2, align 8, !tbaa !11
  %7 = call i32 @unlink(ptr noundef %6) #11
  %8 = icmp ne i32 %7, 0
  br i1 %8, label %9, label %17

9:                                                ; preds = %0
  %10 = call ptr @__errno_location() #14
  %11 = load i32, ptr %10, align 4, !tbaa !4
  %12 = call i32 @is_missing_file_error(i32 noundef %11)
  %13 = icmp ne i32 %12, 0
  br i1 %13, label %17, label %14

14:                                               ; preds = %9
  %15 = call ptr @_(ptr noundef @.str.228)
  %16 = load ptr, ptr %2, align 8, !tbaa !11
  call void (ptr, ...) @warning(ptr noundef %15, ptr noundef %16)
  br label %17

17:                                               ; preds = %14, %9, %0
  %18 = load ptr, ptr %2, align 8, !tbaa !11
  call void @free(ptr noundef %18) #11
  %19 = load ptr, ptr %1, align 8, !tbaa !11
  call void @free(ptr noundef %19) #11
  call void @llvm.lifetime.end.p0(i64 8, ptr %2) #11
  call void @llvm.lifetime.end.p0(i64 8, ptr %1) #11
  ret void
}