; Function Attrs: nounwind uwtable
define internal fastcc void @systemd_timer_delete_stale_timer_templates() unnamed_addr #0 {
  %1 = tail call ptr (ptr, ...) @xstrfmt(ptr noundef nonnull @.str.209, ptr noundef nonnull @.str.75, ptr noundef nonnull @.str.219) #21
  %2 = tail call ptr @xdg_config_home_for(ptr noundef nonnull @.str.215, ptr noundef %1) #21
  %3 = tail call i32 @unlink(ptr noundef %2) #21
  %.not = icmp eq i32 %3, 0
  br i1 %.not, label %11, label %4

4:                                                ; preds = %0
  %5 = tail call ptr @__errno_location() #24
  %6 = load i32, ptr %5, align 4, !tbaa !4
  switch i32 %6, label %7 [
    i32 20, label %11
    i32 2, label %11
  ]

7:                                                ; preds = %4
  %8 = load i32, ptr @git_gettext_enabled, align 4, !tbaa !4
  %.not4.i = icmp eq i32 %8, 0
  br i1 %.not4.i, label %_.exit, label %9

9:                                                ; preds = %7
  %10 = tail call ptr @dcgettext(ptr noundef null, ptr noundef nonnull @.str.228, i32 noundef 5) #21
  br label %_.exit

_.exit:                                           ; preds = %7, %9
  %.0.i = phi ptr [ %10, %9 ], [ @.str.228, %7 ]
  tail call void (ptr, ...) @warning(ptr noundef %.0.i, ptr noundef %2) #21
  br label %11

11:                                               ; preds = %4, %4, %_.exit, %0
  tail call void @free(ptr noundef %2) #21
  tail call void @free(ptr noundef %1) #21
  ret void
}